target datalayout = "e-m:e-p270:32:32-p271:32:32-p272:64:64-i64:64-i128:128-f80:128-n8:16:32:64-S128"
target triple = "x86_64-pc-linux-gnu"

%struct._lv_anim_t = type { ptr, ptr, ptr, ptr, ptr, ptr, ptr, ptr, ptr, i32, i32, i32, i32, i32, i32, i32, i32, i32, %union._lv_anim_path_para_t, i32, i8 }
%union._lv_anim_path_para_t = type { %struct.lv_anim_bezier3_para_t }
%struct.lv_anim_bezier3_para_t = type { i16, i16, i16, i16 }

; Function Attrs: nounwind uwtable
define i32 @lv_anim_path_bounce(ptr noundef %0) #0 {
  %2 = alloca ptr, align 8
  %3 = alloca i32, align 4
  %4 = alloca i32, align 4
  %5 = alloca i32, align 4
  %6 = alloca i32, align 4
  store ptr %0, ptr %2, align 8, !tbaa !21
  call void @llvm.lifetime.start.p0(i64 4, ptr %3) #4
  %7 = load ptr, ptr %2, align 8, !tbaa !21
  %8 = getelementptr inbounds nuw %struct._lv_anim_t, ptr %7, i32 0, i32 13
  %9 = load i32, ptr %8, align 8, !tbaa !27
  %10 = load ptr, ptr %2, align 8, !tbaa !21
  %11 = getelementptr inbounds nuw %struct._lv_anim_t, ptr %10, i32 0, i32 12
  %12 = load i32, ptr %11, align 4, !tbaa !32
  %13 = call i32 @lv_map(i32 noundef %9, i32 noundef 0, i32 noundef %12, i32 noundef 0, i32 noundef 1024)
  store i32 %13, ptr %3, align 4, !tbaa !26
  call void @llvm.lifetime.start.p0(i64 4, ptr %4) #4
  %14 = load ptr, ptr %2, align 8, !tbaa !21
  %15 = getelementptr inbounds nuw %struct._lv_anim_t, ptr %14, i32 0, i32 11
  %16 = load i32, ptr %15, align 8, !tbaa !30
  %17 = load ptr, ptr %2, align 8, !tbaa !21
  %18 = getelementptr inbounds nuw %struct._lv_anim_t, ptr %17, i32 0, i32 9
  %19 = load i32, ptr %18, align 8, !tbaa !29
  %20 = sub nsw i32 %16, %19
  store i32 %20, ptr %4, align 4, !tbaa !26
  %21 = load i32, ptr %3, align 4, !tbaa !26
  %22 = icmp slt i32 %21, 408
  br i1 %22, label %23, label %31

23:                                               ; preds = %1
  %24 = load i32, ptr %3, align 4, !tbaa !26
  %25 = mul nsw i32 %24, 2500
  %26 = ashr i32 %25, 10
  store i32 %26, ptr %3, align 4, !tbaa !26
  %27 = load i32, ptr %3, align 4, !tbaa !26
  %28 = sext i32 %27 to i64
  %29 = sub nsw i64 1024, %28
  %30 = trunc i64 %29 to i32
  store i32 %30, ptr %3, align 4, !tbaa !26
  br label %96

31:                                               ; preds = %1
  %32 = load i32, ptr %3, align 4, !tbaa !26
  %33 = icmp sge i32 %32, 408
  br i1 %33, label %34, label %44

34:                                               ; preds = %31
  %35 = load i32, ptr %3, align 4, !tbaa !26
  %36 = icmp slt i32 %35, 614
  br i1 %36, label %37, label %44

37:                                               ; preds = %34
  %38 = load i32, ptr %3, align 4, !tbaa !26
  %39 = sub nsw i32 %38, 408
  store i32 %39, ptr %3, align 4, !tbaa !26
  %40 = load i32, ptr %3, align 4, !tbaa !26
  %41 = mul nsw i32 %40, 5
  store i32 %41, ptr %3, align 4, !tbaa !26
  %42 = load i32, ptr %4, align 4, !tbaa !26
  %43 = sdiv i32 %42, 20
  store i32 %43, ptr %4, align 4, !tbaa !26
  br label %95

44:                                               ; preds = %34, %31
  %45 = load i32, ptr %3, align 4, !tbaa !26
  %46 = icmp sge i32 %45, 614
  br i1 %46, label %47, label %61

47:                                               ; preds = %44
  %48 = load i32, ptr %3, align 4, !tbaa !26
  %49 = icmp slt i32 %48, 819
  br i1 %49, label %50, label %61

50:                                               ; preds = %47
  %51 = load i32, ptr %3, align 4, !tbaa !26
  %52 = sub nsw i32 %51, 614
  store i32 %52, ptr %3, align 4, !tbaa !26
  %53 = load i32, ptr %3, align 4, !tbaa !26
  %54 = mul nsw i32 %53, 5
  store i32 %54, ptr %3, align 4, !tbaa !26
  %55 = load i32, ptr %3, align 4, !tbaa !26
  %56 = sext i32 %55 to i64
  %57 = sub nsw i64 1024, %56
  %58 = trunc i64 %57 to i32
  store i32 %58, ptr %3, align 4, !tbaa !26
  %59 = load i32, ptr %4, align 4, !tbaa !26
  %60 = sdiv i32 %59, 20
  store i32 %60, ptr %4, align 4, !tbaa !26
  br label %94

61:                                               ; preds = %47, %44
  %62 = load i32, ptr %3, align 4, !tbaa !26
  %63 = icmp sge i32 %62, 819
  br i1 %63, label %64, label %74

64:                                               ; preds = %61
  %65 = load i32, ptr %3, align 4, !tbaa !26
  %66 = icmp slt i32 %65, 921
  br i1 %66, label %67, label %74

67:                                               ; preds = %64
  %68 = load i32, ptr %3, align 4, !tbaa !26
  %69 = sub nsw i32 %68, 819
  store i32 %69, ptr %3, align 4, !tbaa !26
  %70 = load i32, ptr %3, align 4, !tbaa !26
  %71 = mul nsw i32 %70, 10
  store i32 %71, ptr %3, align 4, !tbaa !26
  %72 = load i32, ptr %4, align 4, !tbaa !26
  %73 = sdiv i32 %72, 40
  store i32 %73, ptr %4, align 4, !tbaa !26
  br label %93

74:                                               ; preds = %64, %61
  %75 = load i32, ptr %3, align 4, !tbaa !26
  %76 = icmp sge i32 %75, 921
  br i1 %76, label %77, label %92

77:                                               ; preds = %74
  %78 = load i32, ptr %3, align 4, !tbaa !26
  %79 = sext i32 %78 to i64
  %80 = icmp sle i64 %79, 1024
  br i1 %80, label %81, label %92

81:                                               ; preds = %77
  %82 = load i32, ptr %3, align 4, !tbaa !26
  %83 = sub nsw i32 %82, 921
  store i32 %83, ptr %3, align 4, !tbaa !26
  %84 = load i32, ptr %3, align 4, !tbaa !26
  %85 = mul nsw i32 %84, 10
  store i32 %85, ptr %3, align 4, !tbaa !26
  %86 = load i32, ptr %3, align 4, !tbaa !26
  %87 = sext i32 %86 to i64
  %88 = sub nsw i64 1024, %87
  %89 = trunc i64 %88 to i32
  store i32 %89, ptr %3, align 4, !tbaa !26
  %90 = load i32, ptr %4, align 4, !tbaa !26
  %91 = sdiv i32 %90, 40
  store i32 %91, ptr %4, align 4, !tbaa !26
  br label %92

92:                                               ; preds = %81, %77, %74
  br label %93

93:                                               ; preds = %92, %67
  br label %94

94:                                               ; preds = %93, %50
  br label %95

95:                                               ; preds = %94, %37
  br label %96

96:                                               ; preds = %95, %23
  %97 = load i32, ptr %3, align 4, !tbaa !26
  %98 = sext i32 %97 to i64
  %99 = icmp sgt i64 %98, 1024
  br i1 %99, label %100, label %101

100:                                              ; preds = %96
  store i32 1024, ptr %3, align 4, !tbaa !26
  br label %101

101:                                              ; preds = %100, %96
  %102 = load i32, ptr %3, align 4, !tbaa !26
  %103 = icmp slt i32 %102, 0
  br i1 %103, label %104, label %105

104:                                              ; preds = %101
  store i32 0, ptr %3, align 4, !tbaa !26
  br label %105

105:                                              ; preds = %104, %101
  call void @llvm.lifetime.start.p0(i64 4, ptr %5) #4
  %106 = load i32, ptr %3, align 4, !tbaa !26
  %107 = call i32 @lv_bezier3(i32 noundef %106, i32 noundef 0, i32 noundef 500, i32 noundef 800, i32 noundef 1024)
  store i32 %107, ptr %5, align 4, !tbaa !26
  call void @llvm.lifetime.start.p0(i64 4, ptr %6) #4
  %108 = load i32, ptr %5, align 4, !tbaa !26
  %109 = load i32, ptr %4, align 4, !tbaa !26
  %110 = mul nsw i32 %108, %109
  store i32 %110, ptr %6, align 4, !tbaa !26
  %111 = load i32, ptr %6, align 4, !tbaa !26
  %112 = ashr i32 %111, 10
  store i32 %112, ptr %6, align 4, !tbaa !26
  %113 = load ptr, ptr %2, align 8, !tbaa !21
  %114 = getelementptr inbounds nuw %struct._lv_anim_t, ptr %113, i32 0, i32 11
  %115 = load i32, ptr %114, align 8, !tbaa !30
  %116 = load i32, ptr %6, align 4, !tbaa !26
  %117 = sub nsw i32 %115, %116
  store i32 %117, ptr %6, align 4, !tbaa !26
  %118 = load i32, ptr %6, align 4, !tbaa !26
  call void @llvm.lifetime.end.p0(i64 4, ptr %6) #4
  call void @llvm.lifetime.end.p0(i64 4, ptr %5) #4
  call void @llvm.lifetime.end.p0(i64 4, ptr %4) #4
  call void @llvm.lifetime.end.p0(i64 4, ptr %3) #4
  ret i32 %118
}