; Function Attrs: nounwind uwtable
define i32 @lv_anim_path_bounce(ptr nocapture noundef readonly %0) local_unnamed_addr #0 {
  %2 = getelementptr inbounds nuw i8, ptr %0, i64 88
  %3 = load i32, ptr %2, align 8, !tbaa !25
  %4 = getelementptr inbounds nuw i8, ptr %0, i64 84
  %5 = load i32, ptr %4, align 4, !tbaa !30
  %6 = tail call i32 @lv_map(i32 noundef %3, i32 noundef 0, i32 noundef %5, i32 noundef 0, i32 noundef 1024) #8
  %7 = getelementptr inbounds nuw i8, ptr %0, i64 80
  %8 = load i32, ptr %7, align 8, !tbaa !28
  %9 = getelementptr inbounds nuw i8, ptr %0, i64 72
  %10 = load i32, ptr %9, align 8, !tbaa !27
  %11 = sub nsw i32 %8, %10
  %12 = icmp slt i32 %6, 408
  br i1 %12, label %13, label %16

13:                                               ; preds = %1
  %14 = mul nsw i32 %6, 2500
  %15 = ashr i32 %14, 10
  %narrow = sub nsw i32 1024, %15
  br label %38

16:                                               ; preds = %1
  %17 = icmp ult i32 %6, 614
  br i1 %17, label %18, label %22

18:                                               ; preds = %16
  %19 = mul nuw nsw i32 %6, 5
  %20 = add nsw i32 %19, -2040
  %21 = sdiv i32 %11, 20
  br label %38

22:                                               ; preds = %16
  %23 = icmp ult i32 %6, 819
  br i1 %23, label %24, label %27

24:                                               ; preds = %22
  %.neg48 = mul nsw i32 %6, -5
  %25 = add nsw i32 %.neg48, 4094
  %26 = sdiv i32 %11, 20
  br label %38

27:                                               ; preds = %22
  %28 = icmp ult i32 %6, 921
  br i1 %28, label %29, label %33

29:                                               ; preds = %27
  %30 = mul nuw nsw i32 %6, 10
  %31 = add nsw i32 %30, -8190
  %32 = sdiv i32 %11, 40
  br label %38

33:                                               ; preds = %27
  %34 = icmp ult i32 %6, 1025
  br i1 %34, label %35, label %38

35:                                               ; preds = %33
  %.neg = mul nsw i32 %6, -10
  %36 = add nsw i32 %.neg, 10234
  %37 = sdiv i32 %11, 40
  br label %38

38:                                               ; preds = %18, %29, %35, %33, %24, %13
  %.046 = phi i32 [ %11, %13 ], [ %21, %18 ], [ %26, %24 ], [ %32, %29 ], [ %37, %35 ], [ %11, %33 ]
  %.0 = phi i32 [ %narrow, %13 ], [ %20, %18 ], [ %25, %24 ], [ %31, %29 ], [ %36, %35 ], [ %6, %33 ]
  %spec.store.select = tail call i32 @llvm.smin.i32(i32 %.0, i32 1024)
  %spec.store.select9 = tail call i32 @llvm.smax.i32(i32 %spec.store.select, i32 0)
  %39 = tail call i32 @lv_bezier3(i32 noundef %spec.store.select9, i32 noundef 0, i32 noundef 500, i32 noundef 800, i32 noundef 1024) #8
  %40 = mul nsw i32 %39, %.046
  %41 = ashr i32 %40, 10
  %42 = load i32, ptr %7, align 8, !tbaa !28
  %43 = sub nsw i32 %42, %41
  ret i32 %43
}